; ModuleID = 'bench/openssl/original/defaults.ll'
source_filename = "bench/openssl/original/defaults.ll"
target datalayout = "e-m:e-p270:32:32-p271:32:32-p272:64:64-i64:64-i128:128-f80:128-n8:16:32:64-S128"
target triple = "x86_64-pc-linux-gnu"

@.str = private unnamed_addr constant [15 x i8] c"/usr/local/ssl\00", align 1
@.str.1 = private unnamed_addr constant [27 x i8] c"/usr/local/lib64/engines-3\00", align 1
@.str.2 = private unnamed_addr constant [30 x i8] c"/usr/local/lib64/ossl-modules\00", align 1
@.str.3 = private unnamed_addr constant [10 x i8] c"Undefined\00", align 1

; Function Attrs: mustprogress nofree norecurse nosync nounwind willreturn memory(none) uwtable
define noundef nonnull ptr @ossl_get_openssldir() local_unnamed_addr #0 {
  ret ptr @.str
}

; Function Attrs: mustprogress nofree norecurse nosync nounwind willreturn memory(none) uwtable
define noundef nonnull ptr @ossl_get_enginesdir() local_unnamed_addr #0 {
  ret ptr @.str.1
}

; Function Attrs: mustprogress nofree norecurse nosync nounwind willreturn memory(none) uwtable
define noundef nonnull ptr @ossl_get_modulesdir() local_unnamed_addr #0 {
  ret ptr @.str.2
}

; Function Attrs: mustprogress nofree norecurse nosync nounwind willreturn memory(none) uwtable
define noundef nonnull ptr @ossl_get_wininstallcontext() local_unnamed_addr #0 {
  ret ptr @.str.3
}


!llvm.module.flags = !{!0, !1, !2}

!0 = !{i32 1, !"wchar_size", i32 4}
!1 = !{i32 8, !"PIC Level", i32 2}
!2 = !{i32 7, !"uwtable", i32 2}
